target datalayout = "e-m:e-p270:32:32-p271:32:32-p272:64:64-i64:64-i128:128-f80:128-n8:16:32:64-S128"
target triple = "x86_64-pc-linux-gnu"

; Function Attrs: nounwind uwtable
define ptr @__cli_strnstr(ptr noundef %0, ptr noundef %1, i64 noundef %2) #0 {
  %4 = alloca ptr, align 8
  %5 = alloca ptr, align 8
  %6 = alloca ptr, align 8
  %7 = alloca i64, align 8
  %8 = alloca i8, align 1
  %9 = alloca i8, align 1
  %10 = alloca i64, align 8
  store ptr %0, ptr %5, align 8
  store ptr %1, ptr %6, align 8
  store i64 %2, ptr %7, align 8
  %11 = load ptr, ptr %6, align 8
  %12 = getelementptr inbounds i8, ptr %11, i32 1
  store ptr %12, ptr %6, align 8
  %13 = load i8, ptr %11, align 1
  store i8 %13, ptr %8, align 1
  %14 = sext i8 %13 to i32
  %15 = icmp ne i32 %14, 0
  br i1 %15, label %16, label %53

16:                                               ; preds = %3
  %17 = load ptr, ptr %6, align 8
  %18 = call i64 @strlen(ptr noundef %17) #7
  store i64 %18, ptr %10, align 8
  br label %19

19:                                               ; preds = %44, %16
  br label %20

20:                                               ; preds = %32, %19
  %21 = load i64, ptr %7, align 8
  %22 = add i64 %21, -1
  store i64 %22, ptr %7, align 8
  %23 = icmp ult i64 %21, 1
  br i1 %23, label %30, label %24

24:                                               ; preds = %20
  %25 = load ptr, ptr %5, align 8
  %26 = getelementptr inbounds i8, ptr %25, i32 1
  store ptr %26, ptr %5, align 8
  %27 = load i8, ptr %25, align 1
  store i8 %27, ptr %9, align 1
  %28 = sext i8 %27 to i32
  %29 = icmp eq i32 %28, 0
  br i1 %29, label %30, label %31

30:                                               ; preds = %24, %20
  store ptr null, ptr %4, align 8
  br label %55

31:                                               ; preds = %24
  br label %32

32:                                               ; preds = %31
  %33 = load i8, ptr %9, align 1
  %34 = sext i8 %33 to i32
  %35 = load i8, ptr %8, align 1
  %36 = sext i8 %35 to i32
  %37 = icmp ne i32 %34, %36
  br i1 %37, label %20, label %38

38:                                               ; preds = %32
  %39 = load i64, ptr %10, align 8
  %40 = load i64, ptr %7, align 8
  %41 = icmp ugt i64 %39, %40
  br i1 %41, label %42, label %43

42:                                               ; preds = %38
  store ptr null, ptr %4, align 8
  br label %55

43:                                               ; preds = %38
  br label %44

44:                                               ; preds = %43
  %45 = load ptr, ptr %5, align 8
  %46 = load ptr, ptr %6, align 8
  %47 = load i64, ptr %10, align 8
  %48 = call i32 @strncmp(ptr noundef %45, ptr noundef %46, i64 noundef %47) #7
  %49 = icmp ne i32 %48, 0
  br i1 %49, label %19, label %50

50:                                               ; preds = %44
  %51 = load ptr, ptr %5, align 8
  %52 = getelementptr inbounds i8, ptr %51, i32 -1
  store ptr %52, ptr %5, align 8
  br label %53

53:                                               ; preds = %50, %3
  %54 = load ptr, ptr %5, align 8
  store ptr %54, ptr %4, align 8
  br label %55

55:                                               ; preds = %53, %42, %30
  %56 = load ptr, ptr %4, align 8
  ret ptr %56
}