; Function Attrs: nofree nounwind memory(read, inaccessiblemem: none) uwtable
define ptr @__cli_strnstr(ptr noundef readonly %0, ptr nocapture noundef readonly %1, i64 noundef %2) local_unnamed_addr #15 {
  %4 = getelementptr inbounds i8, ptr %1, i64 1
  %5 = load i8, ptr %1, align 1
  %.not = icmp eq i8 %5, 0
  br i1 %.not, label %.loopexit, label %6

6:                                                ; preds = %3
  %7 = tail call i64 @strlen(ptr noundef nonnull dereferenceable(1) %4) #26
  br label %8

8:                                                ; preds = %.backedge, %6
  %.115 = phi i64 [ %2, %6 ], [ %9, %.backedge ]
  %.1 = phi ptr [ %0, %6 ], [ %15, %.backedge ]
  %9 = add i64 %.115, -1
  %10 = icmp eq i64 %.115, 0
  br i1 %10, label %.loopexit, label %11

11:                                               ; preds = %8
  %12 = load i8, ptr %.1, align 1
  %13 = icmp eq i8 %12, 0
  br i1 %13, label %.loopexit, label %14

14:                                               ; preds = %11
  %15 = getelementptr inbounds i8, ptr %.1, i64 1
  %.not20 = icmp eq i8 %12, %5
  br i1 %.not20, label %16, label %.backedge

.backedge:                                        ; preds = %14, %18
  br label %8

16:                                               ; preds = %14
  %17 = icmp ugt i64 %7, %9
  br i1 %17, label %.loopexit, label %18

18:                                               ; preds = %16
  %19 = tail call i32 @strncmp(ptr noundef nonnull %15, ptr noundef nonnull %4, i64 noundef %7) #26
  %.not21 = icmp eq i32 %19, 0
  br i1 %.not21, label %.loopexit, label %.backedge

.loopexit:                                        ; preds = %18, %16, %8, %11, %3
  %.0 = phi ptr [ %0, %3 ], [ %.1, %18 ], [ null, %16 ], [ null, %8 ], [ null, %11 ]
  ret ptr %.0
}